target datalayout = "e-m:e-p270:32:32-p271:32:32-p272:64:64-i64:64-i128:128-f80:128-n8:16:32:64-S128"
target triple = "x86_64-pc-linux-gnu"

%struct.GCstr = type { %struct.GCRef, i8, i8, i8, i8, i32, i32, i32 }
%struct.GCRef = type { i64 }

; Function Attrs: nounwind uwtable
define hidden i32 @lj_strscan_num(ptr noundef %0, ptr noundef %1) #0 {
  %3 = alloca ptr, align 8
  %4 = alloca ptr, align 8
  %5 = alloca i32, align 4
  store ptr %0, ptr %3, align 8, !tbaa !39
  store ptr %1, ptr %4, align 8, !tbaa !11
  call void @llvm.lifetime.start.p0(i64 4, ptr %5) #5
  %6 = load ptr, ptr %3, align 8, !tbaa !39
  %7 = getelementptr inbounds %struct.GCstr, ptr %6, i64 1
  %8 = load ptr, ptr %3, align 8, !tbaa !39
  %9 = getelementptr inbounds nuw %struct.GCstr, ptr %8, i32 0, i32 7
  %10 = load i32, ptr %9, align 4, !tbaa !41
  %11 = load ptr, ptr %4, align 8, !tbaa !11
  %12 = call i32 @lj_strscan_scan(ptr noundef %7, i32 noundef %10, ptr noundef %11, i32 noundef 2)
  store i32 %12, ptr %5, align 4, !tbaa !9
  %13 = load i32, ptr %5, align 4, !tbaa !9
  %14 = icmp ne i32 %13, 0
  %15 = zext i1 %14 to i32
  call void @llvm.lifetime.end.p0(i64 4, ptr %5) #5
  ret i32 %15
}