; Function Attrs: nofree nounwind uwtable
define hidden range(i32 0, 2) i32 @lj_strscan_num(ptr noundef %0, ptr noundef captures(none) %1) local_unnamed_addr #0 {
  %3 = getelementptr inbounds nuw i8, ptr %0, i64 24
  %4 = getelementptr inbounds nuw i8, ptr %0, i64 20
  %5 = load i32, ptr %4, align 4, !tbaa !30
  %6 = tail call i32 @lj_strscan_scan(ptr noundef nonnull %3, i32 noundef %5, ptr noundef %1, i32 noundef 2)
  %7 = icmp ne i32 %6, 0
  %8 = zext i1 %7 to i32
  ret i32 %8
}